target datalayout = "e-m:e-p270:32:32-p271:32:32-p272:64:64-i64:64-i128:128-f80:128-n8:16:32:64-S128"
target triple = "x86_64-pc-linux-gnu"

%struct.repository = type { ptr, ptr, ptr, ptr, ptr, %struct.strmap, %struct.strmap, %struct.repo_path_cache, ptr, ptr, ptr, ptr, %struct.repo_settings, ptr, ptr, ptr, ptr, ptr, ptr, i32, i32, i32, ptr, ptr, i32, i32, i8 }
%struct.strmap = type { %struct.hashmap, ptr, i8 }
%struct.hashmap = type { ptr, ptr, ptr, i32, i32, i32, i32, i8 }
%struct.repo_path_cache = type { ptr, ptr, ptr, ptr, ptr, ptr, ptr }
%struct.repo_settings = type { i32, i32, i32, i32, i32, i32, i32, i32, i32, i32, i32, i32, ptr, i32, i32, i32, i32, i32, i32, i32, i64, i64, i64 }
%struct.raw_object_store = type { ptr, ptr, ptr, i32, ptr, ptr, i8, %union.pthread_mutex_t, ptr, i8, ptr, ptr, %struct.list_head, %struct.anon, %struct.hashmap, i64, i8 }
%union.pthread_mutex_t = type { %struct.__pthread_mutex_s }
%struct.__pthread_mutex_s = type { i32, i32, i32, i32, i32, i16, i16, %struct.__pthread_internal_list }
%struct.__pthread_internal_list = type { ptr, ptr }
%struct.list_head = type { ptr, ptr }
%struct.anon = type { ptr, i32 }
%struct.commit_graph = type { ptr, i64, i8, i8, i32, %struct.object_id, ptr, ptr, i32, i32, ptr, ptr, ptr, ptr, ptr, ptr, i64, ptr, i64, ptr, i64, ptr, ptr, i64, ptr, ptr }
%struct.object_id = type { [32 x i8], i32 }
%struct.commit = type { %struct.object, i64, ptr, ptr, i32 }
%struct.object = type { i32, %struct.object_id }

@lookup_commit_in_graph.commit_graph_paranoia = internal global i32 -1, align 4
@.str.17 = private unnamed_addr constant [26 x i8] c"GIT_COMMIT_GRAPH_PARANOIA\00", align 1

; Function Attrs: nounwind uwtable
define internal i32 @bsearch_graph(ptr noundef %0, ptr noundef %1, ptr noundef %2) #0 {
  %4 = alloca ptr, align 8
  %5 = alloca ptr, align 8
  %6 = alloca ptr, align 8
  store ptr %0, ptr %4, align 8, !tbaa !79
  store ptr %1, ptr %5, align 8, !tbaa !113
  store ptr %2, ptr %6, align 8, !tbaa !66
  %7 = load ptr, ptr %5, align 8, !tbaa !113
  %8 = getelementptr inbounds nuw %struct.object_id, ptr %7, i32 0, i32 0
  %9 = getelementptr inbounds [32 x i8], ptr %8, i64 0, i64 0
  %10 = load ptr, ptr %4, align 8, !tbaa !79
  %11 = getelementptr inbounds nuw %struct.commit_graph, ptr %10, i32 0, i32 11
  %12 = load ptr, ptr %11, align 8, !tbaa !101
  %13 = load ptr, ptr %4, align 8, !tbaa !79
  %14 = getelementptr inbounds nuw %struct.commit_graph, ptr %13, i32 0, i32 12
  %15 = load ptr, ptr %14, align 8, !tbaa !105
  %16 = load ptr, ptr %4, align 8, !tbaa !79
  %17 = getelementptr inbounds nuw %struct.commit_graph, ptr %16, i32 0, i32 2
  %18 = load i8, ptr %17, align 8, !tbaa !90
  %19 = zext i8 %18 to i64
  %20 = load ptr, ptr %6, align 8, !tbaa !66
  %21 = call i32 @bsearch_hash(ptr noundef %9, ptr noundef %12, ptr noundef %15, i64 noundef %19, ptr noundef %20)
  ret i32 %21
}

; Function Attrs: nounwind uwtable
define internal i32 @search_commit_pos_in_graph(ptr noundef %0, ptr noundef %1, ptr noundef %2) #0 {
  %4 = alloca i32, align 4
  %5 = alloca ptr, align 8
  %6 = alloca ptr, align 8
  %7 = alloca ptr, align 8
  %8 = alloca ptr, align 8
  %9 = alloca i32, align 4
  %10 = alloca i32, align 4
  store ptr %0, ptr %5, align 8, !tbaa !113
  store ptr %1, ptr %6, align 8, !tbaa !79
  store ptr %2, ptr %7, align 8, !tbaa !66
  call void @llvm.lifetime.start.p0(i64 8, ptr %8) #12
  %11 = load ptr, ptr %6, align 8, !tbaa !79
  store ptr %11, ptr %8, align 8, !tbaa !79
  call void @llvm.lifetime.start.p0(i64 4, ptr %9) #12
  br label %12

12:                                               ; preds = %23, %3
  %13 = load ptr, ptr %8, align 8, !tbaa !79
  %14 = icmp ne ptr %13, null
  br i1 %14, label %15, label %21

15:                                               ; preds = %12
  %16 = load ptr, ptr %8, align 8, !tbaa !79
  %17 = load ptr, ptr %5, align 8, !tbaa !113
  %18 = call i32 @bsearch_graph(ptr noundef %16, ptr noundef %17, ptr noundef %9)
  %19 = icmp ne i32 %18, 0
  %20 = xor i1 %19, true
  br label %21

21:                                               ; preds = %15, %12
  %22 = phi i1 [ false, %12 ], [ %20, %15 ]
  br i1 %22, label %23, label %27

23:                                               ; preds = %21
  %24 = load ptr, ptr %8, align 8, !tbaa !79
  %25 = getelementptr inbounds nuw %struct.commit_graph, ptr %24, i32 0, i32 10
  %26 = load ptr, ptr %25, align 8, !tbaa !127
  store ptr %26, ptr %8, align 8, !tbaa !79
  br label %12, !llvm.loop !147

27:                                               ; preds = %21
  %28 = load ptr, ptr %8, align 8, !tbaa !79
  %29 = icmp ne ptr %28, null
  br i1 %29, label %30, label %37

30:                                               ; preds = %27
  %31 = load i32, ptr %9, align 4, !tbaa !4
  %32 = load ptr, ptr %8, align 8, !tbaa !79
  %33 = getelementptr inbounds nuw %struct.commit_graph, ptr %32, i32 0, i32 8
  %34 = load i32, ptr %33, align 8, !tbaa !129
  %35 = add i32 %31, %34
  %36 = load ptr, ptr %7, align 8, !tbaa !66
  store i32 %35, ptr %36, align 4, !tbaa !4
  store i32 1, ptr %4, align 4
  store i32 1, ptr %10, align 4
  br label %38

37:                                               ; preds = %27
  store i32 0, ptr %4, align 4
  store i32 1, ptr %10, align 4
  br label %38

38:                                               ; preds = %37, %30
  call void @llvm.lifetime.end.p0(i64 4, ptr %9) #12
  call void @llvm.lifetime.end.p0(i64 8, ptr %8) #12
  %39 = load i32, ptr %4, align 4
  ret i32 %39
}

; Function Attrs: nounwind uwtable
define dso_local ptr @lookup_commit_in_graph(ptr noundef %0, ptr noundef %1) #0 {
  %3 = alloca ptr, align 8
  %4 = alloca ptr, align 8
  %5 = alloca ptr, align 8
  %6 = alloca ptr, align 8
  %7 = alloca i32, align 4
  %8 = alloca i32, align 4
  store ptr %0, ptr %4, align 8, !tbaa !8
  store ptr %1, ptr %5, align 8, !tbaa !113
  call void @llvm.lifetime.start.p0(i64 8, ptr %6) #12
  call void @llvm.lifetime.start.p0(i64 4, ptr %7) #12
  %9 = load i32, ptr @lookup_commit_in_graph.commit_graph_paranoia, align 4, !tbaa !4
  %10 = icmp eq i32 %9, -1
  br i1 %10, label %11, label %13

11:                                               ; preds = %2
  %12 = call i32 @git_env_bool(ptr noundef @.str.17, i32 noundef 0)
  store i32 %12, ptr @lookup_commit_in_graph.commit_graph_paranoia, align 4, !tbaa !4
  br label %13

13:                                               ; preds = %11, %2
  %14 = load ptr, ptr %4, align 8, !tbaa !8
  %15 = call i32 @prepare_commit_graph(ptr noundef %14)
  %16 = icmp ne i32 %15, 0
  br i1 %16, label %18, label %17

17:                                               ; preds = %13
  store ptr null, ptr %3, align 8
  store i32 1, ptr %8, align 4
  br label %66

18:                                               ; preds = %13
  %19 = load ptr, ptr %5, align 8, !tbaa !113
  %20 = load ptr, ptr %4, align 8, !tbaa !8
  %21 = getelementptr inbounds nuw %struct.repository, ptr %20, i32 0, i32 2
  %22 = load ptr, ptr %21, align 8, !tbaa !11
  %23 = getelementptr inbounds nuw %struct.raw_object_store, ptr %22, i32 0, i32 8
  %24 = load ptr, ptr %23, align 8, !tbaa !135
  %25 = call i32 @search_commit_pos_in_graph(ptr noundef %19, ptr noundef %24, ptr noundef %7)
  %26 = icmp ne i32 %25, 0
  br i1 %26, label %28, label %27

27:                                               ; preds = %18
  store ptr null, ptr %3, align 8
  store i32 1, ptr %8, align 4
  br label %66

28:                                               ; preds = %18
  %29 = load i32, ptr @lookup_commit_in_graph.commit_graph_paranoia, align 4, !tbaa !4
  %30 = icmp ne i32 %29, 0
  br i1 %30, label %31, label %37

31:                                               ; preds = %28
  %32 = load ptr, ptr %4, align 8, !tbaa !8
  %33 = load ptr, ptr %5, align 8, !tbaa !113
  %34 = call i32 @has_object(ptr noundef %32, ptr noundef %33, i32 noundef 0)
  %35 = icmp ne i32 %34, 0
  br i1 %35, label %37, label %36

36:                                               ; preds = %31
  store ptr null, ptr %3, align 8
  store i32 1, ptr %8, align 4
  br label %66

37:                                               ; preds = %31, %28
  %38 = load ptr, ptr %4, align 8, !tbaa !8
  %39 = load ptr, ptr %5, align 8, !tbaa !113
  %40 = call ptr @lookup_commit(ptr noundef %38, ptr noundef %39)
  store ptr %40, ptr %6, align 8, !tbaa !52
  %41 = load ptr, ptr %6, align 8, !tbaa !52
  %42 = icmp ne ptr %41, null
  br i1 %42, label %44, label %43

43:                                               ; preds = %37
  store ptr null, ptr %3, align 8
  store i32 1, ptr %8, align 4
  br label %66

44:                                               ; preds = %37
  %45 = load ptr, ptr %6, align 8, !tbaa !52
  %46 = getelementptr inbounds nuw %struct.commit, ptr %45, i32 0, i32 0
  %47 = load i32, ptr %46, align 8
  %48 = and i32 %47, 1
  %49 = icmp ne i32 %48, 0
  br i1 %49, label %50, label %52

50:                                               ; preds = %44
  %51 = load ptr, ptr %6, align 8, !tbaa !52
  store ptr %51, ptr %3, align 8
  store i32 1, ptr %8, align 4
  br label %66

52:                                               ; preds = %44
  %53 = load ptr, ptr %4, align 8, !tbaa !8
  %54 = load ptr, ptr %6, align 8, !tbaa !52
  %55 = load ptr, ptr %4, align 8, !tbaa !8
  %56 = getelementptr inbounds nuw %struct.repository, ptr %55, i32 0, i32 2
  %57 = load ptr, ptr %56, align 8, !tbaa !11
  %58 = getelementptr inbounds nuw %struct.raw_object_store, ptr %57, i32 0, i32 8
  %59 = load ptr, ptr %58, align 8, !tbaa !135
  %60 = load i32, ptr %7, align 4, !tbaa !4
  %61 = call i32 @fill_commit_in_graph(ptr noundef %53, ptr noundef %54, ptr noundef %59, i32 noundef %60)
  %62 = icmp ne i32 %61, 0
  br i1 %62, label %64, label %63

63:                                               ; preds = %52
  store ptr null, ptr %3, align 8
  store i32 1, ptr %8, align 4
  br label %66

64:                                               ; preds = %52
  %65 = load ptr, ptr %6, align 8, !tbaa !52
  store ptr %65, ptr %3, align 8
  store i32 1, ptr %8, align 4
  br label %66

66:                                               ; preds = %64, %63, %50, %43, %36, %27, %17
  call void @llvm.lifetime.end.p0(i64 4, ptr %7) #12
  call void @llvm.lifetime.end.p0(i64 8, ptr %6) #12
  %67 = load ptr, ptr %3, align 8
  ret ptr %67
}