; Function Attrs: nounwind uwtable
define dso_local ptr @lookup_commit_in_graph(ptr noundef %0, ptr noundef %1) local_unnamed_addr #0 {
  %3 = alloca i32, align 4
  %4 = load i32, ptr @lookup_commit_in_graph.commit_graph_paranoia, align 4, !tbaa !47
  %5 = icmp eq i32 %4, -1
  br i1 %5, label %6, label %8

6:                                                ; preds = %2
  %7 = tail call i32 @git_env_bool(ptr noundef nonnull @.str.17, i32 noundef 0) #24
  store i32 %7, ptr @lookup_commit_in_graph.commit_graph_paranoia, align 4, !tbaa !47
  br label %8

8:                                                ; preds = %6, %2
  %9 = tail call fastcc i32 @prepare_commit_graph(ptr noundef %0)
  %.not = icmp eq i32 %9, 0
  br i1 %.not, label %44, label %10

10:                                               ; preds = %8
  %11 = getelementptr inbounds nuw i8, ptr %0, i64 16
  %12 = load ptr, ptr %11, align 8, !tbaa !9
  %13 = getelementptr inbounds nuw i8, ptr %12, i64 96
  %14 = load ptr, ptr %13, align 8, !tbaa !123
  call void @llvm.lifetime.start.p0(i64 4, ptr nonnull %3) #24
  %.not12.i = icmp eq ptr %14, null
  br i1 %.not12.i, label %search_commit_pos_in_graph.exit.thread, label %.lr.ph.i

.lr.ph.i:                                         ; preds = %10, %23
  %.013.i = phi ptr [ %25, %23 ], [ %14, %10 ]
  %15 = getelementptr inbounds nuw i8, ptr %.013.i, i64 96
  %16 = load ptr, ptr %15, align 8, !tbaa !95
  %17 = getelementptr inbounds nuw i8, ptr %.013.i, i64 104
  %18 = load ptr, ptr %17, align 8, !tbaa !99
  %19 = getelementptr inbounds nuw i8, ptr %.013.i, i64 16
  %20 = load i8, ptr %19, align 8, !tbaa !81
  %21 = zext i8 %20 to i64
  %22 = call i32 @bsearch_hash(ptr noundef %1, ptr noundef %16, ptr noundef %18, i64 noundef %21, ptr noundef nonnull %3) #24
  %.not9.i = icmp eq i32 %22, 0
  br i1 %.not9.i, label %23, label %26

23:                                               ; preds = %.lr.ph.i
  %24 = getelementptr inbounds nuw i8, ptr %.013.i, i64 88
  %25 = load ptr, ptr %24, align 8, !tbaa !114
  %.not.i = icmp eq ptr %25, null
  br i1 %.not.i, label %search_commit_pos_in_graph.exit.thread, label %.lr.ph.i, !llvm.loop !131

search_commit_pos_in_graph.exit.thread:           ; preds = %23, %10
  call void @llvm.lifetime.end.p0(i64 4, ptr nonnull %3) #24
  br label %44

26:                                               ; preds = %.lr.ph.i
  %27 = load i32, ptr %3, align 4, !tbaa !47
  %28 = getelementptr inbounds nuw i8, ptr %.013.i, i64 80
  %29 = load i32, ptr %28, align 8, !tbaa !116
  %30 = add i32 %29, %27
  call void @llvm.lifetime.end.p0(i64 4, ptr nonnull %3) #24
  %31 = load i32, ptr @lookup_commit_in_graph.commit_graph_paranoia, align 4, !tbaa !47
  %.not17 = icmp eq i32 %31, 0
  br i1 %.not17, label %34, label %32

32:                                               ; preds = %26
  %33 = call i32 @has_object(ptr noundef %0, ptr noundef %1, i32 noundef 0) #24
  %.not18 = icmp eq i32 %33, 0
  br i1 %.not18, label %44, label %34

34:                                               ; preds = %32, %26
  %35 = call ptr @lookup_commit(ptr noundef %0, ptr noundef %1) #24
  %.not19 = icmp eq ptr %35, null
  br i1 %.not19, label %44, label %36

36:                                               ; preds = %34
  %37 = load i32, ptr %35, align 8
  %38 = and i32 %37, 1
  %.not20 = icmp eq i32 %38, 0
  br i1 %.not20, label %39, label %44

39:                                               ; preds = %36
  %40 = load ptr, ptr %11, align 8, !tbaa !9
  %41 = getelementptr inbounds nuw i8, ptr %40, i64 96
  %42 = load ptr, ptr %41, align 8, !tbaa !123
  %43 = call fastcc i32 @fill_commit_in_graph(ptr noundef %0, ptr noundef nonnull %35, ptr noundef %42, i32 noundef %30)
  %.not21 = icmp eq i32 %43, 0
  %. = select i1 %.not21, ptr null, ptr %35
  br label %44

44:                                               ; preds = %search_commit_pos_in_graph.exit.thread, %39, %36, %34, %32, %8
  %.0 = phi ptr [ null, %8 ], [ null, %32 ], [ null, %34 ], [ %35, %36 ], [ %., %39 ], [ null, %search_commit_pos_in_graph.exit.thread ]
  ret ptr %.0
}